; Function Attrs: mustprogress uwtable
define internal noundef i32 @_ZZL21ShowDemoWindowWidgetsP19ImGuiDemoWindowDataEN5Funcs16MyResizeCallbackE_0P26ImGuiInputTextCallbackData(ptr noundef captures(none) %0) #4 align 2 {
  %2 = getelementptr inbounds nuw i8, ptr %0, i64 8
  %3 = load i32, ptr %2, align 8, !tbaa !455
  %4 = icmp eq i32 %3, 4194304
  br i1 %4, label %5, label %30

5:                                                ; preds = %1
  %6 = getelementptr inbounds nuw i8, ptr %0, i64 16
  %7 = load ptr, ptr %6, align 8, !tbaa !463
  %8 = getelementptr inbounds nuw i8, ptr %0, i64 44
  %9 = load i32, ptr %8, align 4, !tbaa !491
  %10 = getelementptr inbounds nuw i8, ptr %7, i64 4
  %11 = load i32, ptr %10, align 4, !tbaa !128
  %12 = icmp sgt i32 %9, %11
  br i1 %12, label %13, label %._ZN8ImVectorIcE6resizeEi.exit_crit_edge

._ZN8ImVectorIcE6resizeEi.exit_crit_edge:         ; preds = %5
  %.phi.trans.insert = getelementptr inbounds nuw i8, ptr %7, i64 8
  %.pre = load ptr, ptr %.phi.trans.insert, align 8, !tbaa !127
  br label %_ZN8ImVectorIcE6resizeEi.exit

13:                                               ; preds = %5
  %.not.i.i = icmp eq i32 %11, 0
  br i1 %.not.i.i, label %_ZNK8ImVectorIcE14_grow_capacityEi.exit.i, label %14

14:                                               ; preds = %13
  %15 = sdiv i32 %11, 2
  %16 = add nsw i32 %15, %11
  br label %_ZNK8ImVectorIcE14_grow_capacityEi.exit.i

_ZNK8ImVectorIcE14_grow_capacityEi.exit.i:        ; preds = %14, %13
  %17 = phi i32 [ %16, %14 ], [ 8, %13 ]
  %18 = tail call noundef i32 @llvm.smax.i32(i32 %17, i32 %9)
  %19 = sext i32 %18 to i64
  %20 = tail call noundef ptr @_ZN5ImGui8MemAllocEm(i64 noundef %19)
  %21 = getelementptr inbounds nuw i8, ptr %7, i64 8
  %22 = load ptr, ptr %21, align 8, !tbaa !127
  %.not6.i.i = icmp eq ptr %22, null
  br i1 %.not6.i.i, label %27, label %23

23:                                               ; preds = %_ZNK8ImVectorIcE14_grow_capacityEi.exit.i
  %24 = load i32, ptr %7, align 8, !tbaa !129
  %25 = sext i32 %24 to i64
  tail call void @llvm.memcpy.p0.p0.i64(ptr align 1 %20, ptr nonnull align 1 %22, i64 %25, i1 false)
  %26 = load ptr, ptr %21, align 8, !tbaa !127
  tail call void @_ZN5ImGui7MemFreeEPv(ptr noundef %26)
  br label %27

27:                                               ; preds = %23, %_ZNK8ImVectorIcE14_grow_capacityEi.exit.i
  store ptr %20, ptr %21, align 8, !tbaa !127
  store i32 %18, ptr %10, align 4, !tbaa !128
  br label %_ZN8ImVectorIcE6resizeEi.exit

_ZN8ImVectorIcE6resizeEi.exit:                    ; preds = %._ZN8ImVectorIcE6resizeEi.exit_crit_edge, %27
  %28 = phi ptr [ %.pre, %._ZN8ImVectorIcE6resizeEi.exit_crit_edge ], [ %20, %27 ]
  store i32 %9, ptr %7, align 8, !tbaa !129
  %29 = getelementptr inbounds nuw i8, ptr %0, i64 32
  store ptr %28, ptr %29, align 8, !tbaa !461
  br label %30

30:                                               ; preds = %_ZN8ImVectorIcE6resizeEi.exit, %1
  ret i32 0
}